target datalayout = "e-m:e-p270:32:32-p271:32:32-p272:64:64-i64:64-i128:128-f80:128-n8:16:32:64-S128"
target triple = "x86_64-pc-linux-gnu"

%struct.lxb_dom_node = type { %struct.lxb_dom_event_target, i64, i64, i64, ptr, ptr, ptr, ptr, ptr, ptr, ptr, i32, i64 }
%struct.lxb_dom_event_target = type { ptr }
%struct.lxb_dom_document_type = type { %struct.lxb_dom_node, i64, %struct.lexbor_str_t, %struct.lexbor_str_t }
%struct.lexbor_str_t = type { ptr, i64 }

; Function Attrs: nounwind uwtable
define internal ptr @lxb_dom_document_type_public_id(ptr noundef %0, ptr noundef %1) #0 {
  %3 = alloca ptr, align 8
  %4 = alloca ptr, align 8
  store ptr %0, ptr %3, align 8
  store ptr %1, ptr %4, align 8
  %5 = load ptr, ptr %4, align 8
  %6 = icmp ne ptr %5, null
  br i1 %6, label %7, label %13

7:                                                ; preds = %2
  %8 = load ptr, ptr %3, align 8
  %9 = getelementptr inbounds %struct.lxb_dom_document_type, ptr %8, i32 0, i32 2
  %10 = getelementptr inbounds %struct.lexbor_str_t, ptr %9, i32 0, i32 1
  %11 = load i64, ptr %10, align 8
  %12 = load ptr, ptr %4, align 8
  store i64 %11, ptr %12, align 8
  br label %13

13:                                               ; preds = %7, %2
  %14 = load ptr, ptr %3, align 8
  %15 = getelementptr inbounds %struct.lxb_dom_document_type, ptr %14, i32 0, i32 2
  %16 = getelementptr inbounds %struct.lexbor_str_t, ptr %15, i32 0, i32 0
  %17 = load ptr, ptr %16, align 8
  ret ptr %17
}

; Function Attrs: nounwind uwtable
define hidden ptr @lxb_dom_document_type_public_id_noi(ptr noundef %0, ptr noundef %1) #0 {
  %3 = alloca ptr, align 8
  %4 = alloca ptr, align 8
  store ptr %0, ptr %3, align 8
  store ptr %1, ptr %4, align 8
  %5 = load ptr, ptr %3, align 8
  %6 = load ptr, ptr %4, align 8
  %7 = call ptr @lxb_dom_document_type_public_id(ptr noundef %5, ptr noundef %6)
  ret ptr %7
}