; Function Attrs: mustprogress nofree norecurse nosync nounwind willreturn memory(argmem: readwrite) uwtable
define hidden ptr @lxb_dom_document_type_public_id_noi(ptr nocapture noundef readonly %0, ptr noundef writeonly %1) local_unnamed_addr #3 {
  %.not.i = icmp eq ptr %1, null
  br i1 %.not.i, label %lxb_dom_document_type_public_id.exit, label %3

3:                                                ; preds = %2
  %4 = getelementptr inbounds i8, ptr %0, i64 120
  %5 = load i64, ptr %4, align 8
  store i64 %5, ptr %1, align 8
  br label %lxb_dom_document_type_public_id.exit

lxb_dom_document_type_public_id.exit:             ; preds = %2, %3
  %6 = getelementptr inbounds i8, ptr %0, i64 112
  %7 = load ptr, ptr %6, align 8
  ret ptr %7
}